(lp0
(lp1
S'BCAMP_IO_APP_NOOP_CC'
p2
aS'BCAMP_IO_APP_RESET_COUNTERS_CC'
p3
aS'BCAMP_IO_APP_PROCESS_CC'
p4
aS'BCAMP_IO_APP_SET_CURRENT_TEMP_CC'
p5
aS'BCAMP_IO_APP_SET_DELTA_VALUE_CC'
p6
aa(lp7
S'0'
p8
aS'1'
p9
aS'2'
p10
aS'3'
p11
aS'4'
p12
aag1
a.