(lp0
(lp1
S'BCAMP_MN_APP_NOOP_CC'
p2
aS'BCAMP_MN_APP_RESET_COUNTERS_CC'
p3
aS'BCAMP_MN_APP_PROCESS_CC'
p4
aS'BCAMP_MN_APP_SET_COLD_LIMIT_CC'
p5
aS'BCAMP_MN_APP_SET_HOT_LIMIT_CC'
p6
aa(lp7
S'0'
p8
aS'1'
p9
aS'2'
p10
aS'3'
p11
aS'4'
p12
aag1
a.